target datalayout = "e-m:e-p270:32:32-p271:32:32-p272:64:64-i64:64-i128:128-f80:128-n8:16:32:64-S128"
target triple = "x86_64-pc-linux-gnu"

; Function Attrs: inlinehint mustprogress uwtable
define internal noundef zeroext i1 @_ZN17double_conversion12_GLOBAL__N_120ConsumeSubStringImplIPKtPFccEEEbPT_S6_PKcT0_(ptr noundef %0, ptr noundef %1, ptr noundef %2, ptr noundef %3) #2 {
  %5 = alloca i1, align 1
  %6 = alloca ptr, align 8
  %7 = alloca ptr, align 8
  %8 = alloca ptr, align 8
  %9 = alloca ptr, align 8
  store ptr %0, ptr %6, align 8, !tbaa !94
  store ptr %1, ptr %7, align 8, !tbaa !36
  store ptr %2, ptr %8, align 8, !tbaa !8
  store ptr %3, ptr %9, align 8, !tbaa !77
  %10 = load ptr, ptr %8, align 8, !tbaa !8
  %11 = getelementptr inbounds nuw i8, ptr %10, i32 1
  store ptr %11, ptr %8, align 8, !tbaa !8
  br label %12

12:                                               ; preds = %39, %4
  %13 = load ptr, ptr %8, align 8, !tbaa !8
  %14 = load i8, ptr %13, align 1, !tbaa !24
  %15 = sext i8 %14 to i32
  %16 = icmp ne i32 %15, 0
  br i1 %16, label %17, label %42

17:                                               ; preds = %12
  %18 = load ptr, ptr %6, align 8, !tbaa !94
  %19 = load ptr, ptr %18, align 8, !tbaa !36
  %20 = getelementptr inbounds nuw i16, ptr %19, i32 1
  store ptr %20, ptr %18, align 8, !tbaa !36
  %21 = load ptr, ptr %6, align 8, !tbaa !94
  %22 = load ptr, ptr %21, align 8, !tbaa !36
  %23 = load ptr, ptr %7, align 8, !tbaa !36
  %24 = icmp eq ptr %22, %23
  br i1 %24, label %37, label %25

25:                                               ; preds = %17
  %26 = load ptr, ptr %9, align 8, !tbaa !77
  %27 = load ptr, ptr %6, align 8, !tbaa !94
  %28 = load ptr, ptr %27, align 8, !tbaa !36
  %29 = load i16, ptr %28, align 2, !tbaa !38
  %30 = trunc i16 %29 to i8
  %31 = call noundef signext i8 %26(i8 noundef signext %30)
  %32 = sext i8 %31 to i32
  %33 = load ptr, ptr %8, align 8, !tbaa !8
  %34 = load i8, ptr %33, align 1, !tbaa !24
  %35 = sext i8 %34 to i32
  %36 = icmp ne i32 %32, %35
  br i1 %36, label %37, label %38

37:                                               ; preds = %25, %17
  store i1 false, ptr %5, align 1
  br label %46

38:                                               ; preds = %25
  br label %39

39:                                               ; preds = %38
  %40 = load ptr, ptr %8, align 8, !tbaa !8
  %41 = getelementptr inbounds nuw i8, ptr %40, i32 1
  store ptr %41, ptr %8, align 8, !tbaa !8
  br label %12, !llvm.loop !105

42:                                               ; preds = %12
  %43 = load ptr, ptr %6, align 8, !tbaa !94
  %44 = load ptr, ptr %43, align 8, !tbaa !36
  %45 = getelementptr inbounds nuw i16, ptr %44, i32 1
  store ptr %45, ptr %43, align 8, !tbaa !36
  store i1 true, ptr %5, align 1
  br label %46

46:                                               ; preds = %42, %37
  %47 = load i1, ptr %5, align 1
  ret i1 %47
}

; Function Attrs: mustprogress uwtable
define internal noundef zeroext i1 @_ZN17double_conversion12_GLOBAL__N_116ConsumeSubStringIPKtEEbPT_S4_PKcb(ptr noundef %0, ptr noundef %1, ptr noundef %2, i1 noundef zeroext %3) #0 {
  %5 = alloca i1, align 1
  %6 = alloca ptr, align 8
  %7 = alloca ptr, align 8
  %8 = alloca ptr, align 8
  %9 = alloca i8, align 1
  store ptr %0, ptr %6, align 8, !tbaa !94
  store ptr %1, ptr %7, align 8, !tbaa !36
  store ptr %2, ptr %8, align 8, !tbaa !8
  %10 = zext i1 %3 to i8
  store i8 %10, ptr %9, align 1, !tbaa !14
  %11 = load i8, ptr %9, align 1, !tbaa !14, !range !21, !noundef !22
  %12 = trunc i8 %11 to i1
  br i1 %12, label %13, label %18

13:                                               ; preds = %4
  %14 = load ptr, ptr %6, align 8, !tbaa !94
  %15 = load ptr, ptr %7, align 8, !tbaa !36
  %16 = load ptr, ptr %8, align 8, !tbaa !8
  %17 = call noundef zeroext i1 @_ZN17double_conversion12_GLOBAL__N_120ConsumeSubStringImplIPKtPFccEEEbPT_S6_PKcT0_(ptr noundef %14, ptr noundef %15, ptr noundef %16, ptr noundef @_ZN17double_conversion12_GLOBAL__N_17ToLowerEc)
  store i1 %17, ptr %5, align 1
  br label %23

18:                                               ; preds = %4
  %19 = load ptr, ptr %6, align 8, !tbaa !94
  %20 = load ptr, ptr %7, align 8, !tbaa !36
  %21 = load ptr, ptr %8, align 8, !tbaa !8
  %22 = call noundef zeroext i1 @_ZN17double_conversion12_GLOBAL__N_120ConsumeSubStringImplIPKtPFccEEEbPT_S6_PKcT0_(ptr noundef %19, ptr noundef %20, ptr noundef %21, ptr noundef @_ZN17double_conversion12_GLOBAL__N_14PassEc)
  store i1 %22, ptr %5, align 1
  br label %23

23:                                               ; preds = %18, %13
  %24 = load i1, ptr %5, align 1
  ret i1 %24
}